target datalayout = "e-m:e-p270:32:32-p271:32:32-p272:64:64-i64:64-i128:128-f80:128-n8:16:32:64-S128"
target triple = "x86_64-pc-linux-gnu"

%struct._lv_vector_draw_dsc_t = type { %struct._lv_vector_fill_dsc_t, %struct._lv_vector_stroke_dsc_t, %struct._lv_matrix_t, i32, %struct.lv_area_t }
%struct._lv_vector_fill_dsc_t = type { i32, %struct.lv_color32_t, i8, i32, %struct._lv_draw_image_dsc_t, %struct._lv_vector_gradient_t, %struct._lv_matrix_t }
%struct.lv_color32_t = type { i8, i8, i8, i8 }
%struct._lv_draw_image_dsc_t = type { %struct.lv_draw_dsc_base_t, ptr, %struct.lv_image_header_t, i32, i32, i32, i32, i32, %struct.lv_point_t, %struct.lv_color_t, i8, i8, i8, ptr, %struct.lv_area_t, i32, ptr }
%struct.lv_draw_dsc_base_t = type { ptr, i32, i32, i32, ptr, i64, ptr }
%struct.lv_image_header_t = type <{ i64, i32 }>
%struct.lv_point_t = type { i32, i32 }
%struct.lv_color_t = type { i8, i8, i8 }
%struct._lv_vector_gradient_t = type { i32, [2 x %struct.lv_gradient_stop_t], i16, float, float, float, float, float, float, float, i32 }
%struct.lv_gradient_stop_t = type { %struct.lv_color_t, i8, i8 }
%struct._lv_vector_stroke_dsc_t = type { i32, %struct.lv_color32_t, i8, float, %struct._lv_array_t, i32, i32, i16, %struct._lv_vector_gradient_t, %struct._lv_matrix_t }
%struct._lv_array_t = type { ptr, i32, i32, i32, i8 }
%struct._lv_matrix_t = type { [3 x [3 x float]] }
%struct.lv_area_t = type { i32, i32, i32, i32 }
%struct._lv_svg_render_obj = type { ptr, i32, ptr, %struct._lv_vector_draw_dsc_t, %struct._lv_matrix_t, ptr, ptr, ptr, ptr, ptr, ptr, ptr, ptr, ptr }
%struct._lv_svg_render_content = type { %struct._lv_svg_render_obj, ptr, ptr, i32 }
%struct.lv_svg_attr_t = type { i8, i8, i8, %union.lv_svg_attr_value_t }
%union.lv_svg_attr_value_t = type { ptr }
%struct.lv_svg_render_tspan_t = type { %struct._lv_svg_render_content, ptr, float, i32, ptr, ptr, %struct.lv_area_t }

@.str.1 = private unnamed_addr constant [7 x i8] c"italic\00", align 1
@.str.2 = private unnamed_addr constant [5 x i8] c"bold\00", align 1
@.str.3 = private unnamed_addr constant [11 x i8] c"small-caps\00", align 1

; Function Attrs: nounwind uwtable
define internal void @_set_tspan_attr(ptr noundef %0, ptr noundef %1, ptr noundef %2) #0 {
  %4 = alloca ptr, align 8
  %5 = alloca ptr, align 8
  %6 = alloca ptr, align 8
  %7 = alloca ptr, align 8
  store ptr %0, ptr %4, align 8, !tbaa !3
  store ptr %1, ptr %5, align 8, !tbaa !3
  store ptr %2, ptr %6, align 8, !tbaa !3
  %8 = load ptr, ptr %4, align 8, !tbaa !3
  %9 = load ptr, ptr %5, align 8, !tbaa !3
  %10 = load ptr, ptr %6, align 8, !tbaa !3
  call void @_set_attr(ptr noundef %8, ptr noundef %9, ptr noundef %10)
  call void @llvm.lifetime.start.p0(i64 8, ptr %7) #8
  %11 = load ptr, ptr %4, align 8, !tbaa !3
  store ptr %11, ptr %7, align 8, !tbaa !3
  br label %12

12:                                               ; preds = %3
  %13 = load ptr, ptr %6, align 8, !tbaa !3
  %14 = getelementptr inbounds nuw %struct.lv_svg_attr_t, ptr %13, i32 0, i32 0
  %15 = load i8, ptr %14, align 8, !tbaa !154
  %16 = zext i8 %15 to i32
  switch i32 %16, label %204 [
    i32 46, label %17
    i32 50, label %54
    i32 47, label %88
    i32 49, label %126
    i32 48, label %164
  ]

17:                                               ; preds = %12
  %18 = load ptr, ptr %6, align 8, !tbaa !3
  %19 = getelementptr inbounds nuw %struct.lv_svg_attr_t, ptr %18, i32 0, i32 1
  %20 = load i8, ptr %19, align 1, !tbaa !158
  %21 = zext i8 %20 to i32
  %22 = icmp eq i32 %21, 1
  br i1 %22, label %23, label %53

23:                                               ; preds = %17
  %24 = load ptr, ptr %7, align 8, !tbaa !3
  %25 = getelementptr inbounds nuw %struct.lv_svg_render_tspan_t, ptr %24, i32 0, i32 4
  %26 = load ptr, ptr %25, align 8, !tbaa !213
  %27 = icmp ne ptr %26, null
  br i1 %27, label %28, label %34

28:                                               ; preds = %23
  %29 = load ptr, ptr %7, align 8, !tbaa !3
  %30 = getelementptr inbounds nuw %struct.lv_svg_render_tspan_t, ptr %29, i32 0, i32 4
  %31 = load ptr, ptr %30, align 8, !tbaa !213
  call void @lv_freetype_font_delete(ptr noundef %31)
  %32 = load ptr, ptr %7, align 8, !tbaa !3
  %33 = getelementptr inbounds nuw %struct.lv_svg_render_tspan_t, ptr %32, i32 0, i32 4
  store ptr null, ptr %33, align 8, !tbaa !213
  br label %34

34:                                               ; preds = %28, %23
  %35 = load ptr, ptr %7, align 8, !tbaa !3
  %36 = getelementptr inbounds nuw %struct.lv_svg_render_tspan_t, ptr %35, i32 0, i32 5
  %37 = load ptr, ptr %36, align 8, !tbaa !218
  call void @lv_vector_path_clear(ptr noundef %37)
  %38 = load ptr, ptr %7, align 8, !tbaa !3
  %39 = getelementptr inbounds nuw %struct.lv_svg_render_tspan_t, ptr %38, i32 0, i32 1
  %40 = load ptr, ptr %39, align 8, !tbaa !215
  %41 = icmp ne ptr %40, null
  br i1 %41, label %42, label %46

42:                                               ; preds = %34
  %43 = load ptr, ptr %7, align 8, !tbaa !3
  %44 = getelementptr inbounds nuw %struct.lv_svg_render_tspan_t, ptr %43, i32 0, i32 1
  %45 = load ptr, ptr %44, align 8, !tbaa !215
  call void @lv_free(ptr noundef %45)
  br label %46

46:                                               ; preds = %42, %34
  %47 = load ptr, ptr %6, align 8, !tbaa !3
  %48 = getelementptr inbounds nuw %struct.lv_svg_attr_t, ptr %47, i32 0, i32 3
  %49 = load ptr, ptr %48, align 8, !tbaa !79
  %50 = call ptr @lv_strdup(ptr noundef %49)
  %51 = load ptr, ptr %7, align 8, !tbaa !3
  %52 = getelementptr inbounds nuw %struct.lv_svg_render_tspan_t, ptr %51, i32 0, i32 1
  store ptr %50, ptr %52, align 8, !tbaa !215
  br label %53

53:                                               ; preds = %46, %17
  br label %204

54:                                               ; preds = %12
  %55 = load ptr, ptr %6, align 8, !tbaa !3
  %56 = getelementptr inbounds nuw %struct.lv_svg_attr_t, ptr %55, i32 0, i32 2
  %57 = load i8, ptr %56, align 2, !tbaa !156
  %58 = zext i8 %57 to i32
  %59 = icmp eq i32 %58, 1
  br i1 %59, label %60, label %87

60:                                               ; preds = %54
  %61 = load ptr, ptr %6, align 8, !tbaa !3
  %62 = getelementptr inbounds nuw %struct.lv_svg_attr_t, ptr %61, i32 0, i32 1
  %63 = load i8, ptr %62, align 1, !tbaa !158
  %64 = zext i8 %63 to i32
  %65 = icmp eq i32 %64, 0
  br i1 %65, label %66, label %86

66:                                               ; preds = %60
  %67 = load ptr, ptr %7, align 8, !tbaa !3
  %68 = getelementptr inbounds nuw %struct.lv_svg_render_tspan_t, ptr %67, i32 0, i32 4
  %69 = load ptr, ptr %68, align 8, !tbaa !213
  %70 = icmp ne ptr %69, null
  br i1 %70, label %71, label %77

71:                                               ; preds = %66
  %72 = load ptr, ptr %7, align 8, !tbaa !3
  %73 = getelementptr inbounds nuw %struct.lv_svg_render_tspan_t, ptr %72, i32 0, i32 4
  %74 = load ptr, ptr %73, align 8, !tbaa !213
  call void @lv_freetype_font_delete(ptr noundef %74)
  %75 = load ptr, ptr %7, align 8, !tbaa !3
  %76 = getelementptr inbounds nuw %struct.lv_svg_render_tspan_t, ptr %75, i32 0, i32 4
  store ptr null, ptr %76, align 8, !tbaa !213
  br label %77

77:                                               ; preds = %71, %66
  %78 = load ptr, ptr %6, align 8, !tbaa !3
  %79 = getelementptr inbounds nuw %struct.lv_svg_attr_t, ptr %78, i32 0, i32 3
  %80 = load float, ptr %79, align 8, !tbaa !79
  %81 = load ptr, ptr %7, align 8, !tbaa !3
  %82 = getelementptr inbounds nuw %struct.lv_svg_render_tspan_t, ptr %81, i32 0, i32 2
  store float %80, ptr %82, align 8, !tbaa !216
  %83 = load ptr, ptr %7, align 8, !tbaa !3
  %84 = getelementptr inbounds nuw %struct.lv_svg_render_tspan_t, ptr %83, i32 0, i32 5
  %85 = load ptr, ptr %84, align 8, !tbaa !218
  call void @lv_vector_path_clear(ptr noundef %85)
  br label %86

86:                                               ; preds = %77, %60
  br label %87

87:                                               ; preds = %86, %54
  br label %204

88:                                               ; preds = %12
  %89 = load ptr, ptr %6, align 8, !tbaa !3
  %90 = getelementptr inbounds nuw %struct.lv_svg_attr_t, ptr %89, i32 0, i32 2
  %91 = load i8, ptr %90, align 2, !tbaa !156
  %92 = zext i8 %91 to i32
  %93 = icmp eq i32 %92, 1
  br i1 %93, label %94, label %125

94:                                               ; preds = %88
  %95 = load ptr, ptr %6, align 8, !tbaa !3
  %96 = getelementptr inbounds nuw %struct.lv_svg_attr_t, ptr %95, i32 0, i32 1
  %97 = load i8, ptr %96, align 1, !tbaa !158
  %98 = zext i8 %97 to i32
  %99 = icmp eq i32 %98, 1
  br i1 %99, label %100, label %124

100:                                              ; preds = %94
  %101 = load ptr, ptr %7, align 8, !tbaa !3
  %102 = getelementptr inbounds nuw %struct.lv_svg_render_tspan_t, ptr %101, i32 0, i32 4
  %103 = load ptr, ptr %102, align 8, !tbaa !213
  %104 = icmp ne ptr %103, null
  br i1 %104, label %105, label %111

105:                                              ; preds = %100
  %106 = load ptr, ptr %7, align 8, !tbaa !3
  %107 = getelementptr inbounds nuw %struct.lv_svg_render_tspan_t, ptr %106, i32 0, i32 4
  %108 = load ptr, ptr %107, align 8, !tbaa !213
  call void @lv_freetype_font_delete(ptr noundef %108)
  %109 = load ptr, ptr %7, align 8, !tbaa !3
  %110 = getelementptr inbounds nuw %struct.lv_svg_render_tspan_t, ptr %109, i32 0, i32 4
  store ptr null, ptr %110, align 8, !tbaa !213
  br label %111

111:                                              ; preds = %105, %100
  %112 = load ptr, ptr %7, align 8, !tbaa !3
  %113 = getelementptr inbounds nuw %struct.lv_svg_render_tspan_t, ptr %112, i32 0, i32 5
  %114 = load ptr, ptr %113, align 8, !tbaa !218
  call void @lv_vector_path_clear(ptr noundef %114)
  %115 = load ptr, ptr %6, align 8, !tbaa !3
  %116 = getelementptr inbounds nuw %struct.lv_svg_attr_t, ptr %115, i32 0, i32 3
  %117 = load ptr, ptr %116, align 8, !tbaa !79
  %118 = call i32 @strncmp(ptr noundef %117, ptr noundef @.str.1, i64 noundef 6) #9
  %119 = icmp eq i32 %118, 0
  br i1 %119, label %120, label %123

120:                                              ; preds = %111
  %121 = load ptr, ptr %7, align 8, !tbaa !3
  %122 = getelementptr inbounds nuw %struct.lv_svg_render_tspan_t, ptr %121, i32 0, i32 3
  store i32 1, ptr %122, align 4, !tbaa !217
  br label %123

123:                                              ; preds = %120, %111
  br label %124

124:                                              ; preds = %123, %94
  br label %125

125:                                              ; preds = %124, %88
  br label %204

126:                                              ; preds = %12
  %127 = load ptr, ptr %6, align 8, !tbaa !3
  %128 = getelementptr inbounds nuw %struct.lv_svg_attr_t, ptr %127, i32 0, i32 2
  %129 = load i8, ptr %128, align 2, !tbaa !156
  %130 = zext i8 %129 to i32
  %131 = icmp eq i32 %130, 1
  br i1 %131, label %132, label %163

132:                                              ; preds = %126
  %133 = load ptr, ptr %6, align 8, !tbaa !3
  %134 = getelementptr inbounds nuw %struct.lv_svg_attr_t, ptr %133, i32 0, i32 1
  %135 = load i8, ptr %134, align 1, !tbaa !158
  %136 = zext i8 %135 to i32
  %137 = icmp eq i32 %136, 1
  br i1 %137, label %138, label %162

138:                                              ; preds = %132
  %139 = load ptr, ptr %7, align 8, !tbaa !3
  %140 = getelementptr inbounds nuw %struct.lv_svg_render_tspan_t, ptr %139, i32 0, i32 4
  %141 = load ptr, ptr %140, align 8, !tbaa !213
  %142 = icmp ne ptr %141, null
  br i1 %142, label %143, label %149

143:                                              ; preds = %138
  %144 = load ptr, ptr %7, align 8, !tbaa !3
  %145 = getelementptr inbounds nuw %struct.lv_svg_render_tspan_t, ptr %144, i32 0, i32 4
  %146 = load ptr, ptr %145, align 8, !tbaa !213
  call void @lv_freetype_font_delete(ptr noundef %146)
  %147 = load ptr, ptr %7, align 8, !tbaa !3
  %148 = getelementptr inbounds nuw %struct.lv_svg_render_tspan_t, ptr %147, i32 0, i32 4
  store ptr null, ptr %148, align 8, !tbaa !213
  br label %149

149:                                              ; preds = %143, %138
  %150 = load ptr, ptr %7, align 8, !tbaa !3
  %151 = getelementptr inbounds nuw %struct.lv_svg_render_tspan_t, ptr %150, i32 0, i32 5
  %152 = load ptr, ptr %151, align 8, !tbaa !218
  call void @lv_vector_path_clear(ptr noundef %152)
  %153 = load ptr, ptr %6, align 8, !tbaa !3
  %154 = getelementptr inbounds nuw %struct.lv_svg_attr_t, ptr %153, i32 0, i32 3
  %155 = load ptr, ptr %154, align 8, !tbaa !79
  %156 = call i32 @strncmp(ptr noundef %155, ptr noundef @.str.2, i64 noundef 4) #9
  %157 = icmp eq i32 %156, 0
  br i1 %157, label %158, label %161

158:                                              ; preds = %149
  %159 = load ptr, ptr %7, align 8, !tbaa !3
  %160 = getelementptr inbounds nuw %struct.lv_svg_render_tspan_t, ptr %159, i32 0, i32 3
  store i32 2, ptr %160, align 4, !tbaa !217
  br label %161

161:                                              ; preds = %158, %149
  br label %162

162:                                              ; preds = %161, %132
  br label %163

163:                                              ; preds = %162, %126
  br label %204

164:                                              ; preds = %12
  %165 = load ptr, ptr %6, align 8, !tbaa !3
  %166 = getelementptr inbounds nuw %struct.lv_svg_attr_t, ptr %165, i32 0, i32 2
  %167 = load i8, ptr %166, align 2, !tbaa !156
  %168 = zext i8 %167 to i32
  %169 = icmp eq i32 %168, 1
  br i1 %169, label %170, label %203

170:                                              ; preds = %164
  %171 = load ptr, ptr %6, align 8, !tbaa !3
  %172 = getelementptr inbounds nuw %struct.lv_svg_attr_t, ptr %171, i32 0, i32 1
  %173 = load i8, ptr %172, align 1, !tbaa !158
  %174 = zext i8 %173 to i32
  %175 = icmp eq i32 %174, 1
  br i1 %175, label %176, label %202

176:                                              ; preds = %170
  %177 = load ptr, ptr %7, align 8, !tbaa !3
  %178 = getelementptr inbounds nuw %struct.lv_svg_render_tspan_t, ptr %177, i32 0, i32 4
  %179 = load ptr, ptr %178, align 8, !tbaa !213
  %180 = icmp ne ptr %179, null
  br i1 %180, label %181, label %187

181:                                              ; preds = %176
  %182 = load ptr, ptr %7, align 8, !tbaa !3
  %183 = getelementptr inbounds nuw %struct.lv_svg_render_tspan_t, ptr %182, i32 0, i32 4
  %184 = load ptr, ptr %183, align 8, !tbaa !213
  call void @lv_freetype_font_delete(ptr noundef %184)
  %185 = load ptr, ptr %7, align 8, !tbaa !3
  %186 = getelementptr inbounds nuw %struct.lv_svg_render_tspan_t, ptr %185, i32 0, i32 4
  store ptr null, ptr %186, align 8, !tbaa !213
  br label %187

187:                                              ; preds = %181, %176
  %188 = load ptr, ptr %7, align 8, !tbaa !3
  %189 = getelementptr inbounds nuw %struct.lv_svg_render_tspan_t, ptr %188, i32 0, i32 5
  %190 = load ptr, ptr %189, align 8, !tbaa !218
  call void @lv_vector_path_clear(ptr noundef %190)
  %191 = load ptr, ptr %6, align 8, !tbaa !3
  %192 = getelementptr inbounds nuw %struct.lv_svg_attr_t, ptr %191, i32 0, i32 3
  %193 = load ptr, ptr %192, align 8, !tbaa !79
  %194 = call i32 @strncmp(ptr noundef %193, ptr noundef @.str.3, i64 noundef 10) #9
  %195 = icmp eq i32 %194, 0
  br i1 %195, label %196, label %201

196:                                              ; preds = %187
  %197 = load ptr, ptr %7, align 8, !tbaa !3
  %198 = getelementptr inbounds nuw %struct.lv_svg_render_tspan_t, ptr %197, i32 0, i32 2
  %199 = load float, ptr %198, align 8, !tbaa !216
  %200 = fdiv float %199, 2.000000e+00
  store float %200, ptr %198, align 8, !tbaa !216
  br label %201

201:                                              ; preds = %196, %187
  br label %202

202:                                              ; preds = %201, %170
  br label %203

203:                                              ; preds = %202, %164
  br label %204

204:                                              ; preds = %12, %203, %163, %125, %87, %53
  br label %205

205:                                              ; preds = %204
  br label %206

206:                                              ; preds = %205
  call void @llvm.lifetime.end.p0(i64 8, ptr %7) #8
  ret void
}